target datalayout = "e-m:e-p270:32:32-p271:32:32-p272:64:64-i64:64-i128:128-f80:128-n8:16:32:64-S128"
target triple = "x86_64-pc-linux-gnu"

%struct.redisObject = type { i32, i32, ptr }
%struct.hllhdr = type { [4 x i8], i8, [3 x i8], [8 x i8], [0 x i8] }

@.str.6 = private unnamed_addr constant [56 x i8] c"-WRONGTYPE Key is not a valid HyperLogLog string value.\00", align 1

; Function Attrs: nounwind uwtable
define dso_local i32 @isHLLObjectOrReply(ptr noundef %0, ptr noundef %1) #0 {
  %3 = alloca i32, align 4
  %4 = alloca ptr, align 8
  %5 = alloca ptr, align 8
  %6 = alloca ptr, align 8
  %7 = alloca i32, align 4
  store ptr %0, ptr %4, align 8, !tbaa !86
  store ptr %1, ptr %5, align 8, !tbaa !23
  call void @llvm.lifetime.start.p0(i64 8, ptr %6) #15
  %8 = load ptr, ptr %4, align 8, !tbaa !86
  %9 = load ptr, ptr %5, align 8, !tbaa !23
  %10 = call i32 @checkType(ptr noundef %8, ptr noundef %9, i32 noundef 0)
  %11 = icmp ne i32 %10, 0
  br i1 %11, label %12, label %13

12:                                               ; preds = %2
  store i32 -1, ptr %3, align 4
  store i32 1, ptr %7, align 4
  br label %84

13:                                               ; preds = %2
  %14 = load ptr, ptr %5, align 8, !tbaa !23
  %15 = load i32, ptr %14, align 8
  %16 = lshr i32 %15, 4
  %17 = and i32 %16, 15
  %18 = icmp eq i32 %17, 0
  br i1 %18, label %26, label %19

19:                                               ; preds = %13
  %20 = load ptr, ptr %5, align 8, !tbaa !23
  %21 = load i32, ptr %20, align 8
  %22 = lshr i32 %21, 4
  %23 = and i32 %22, 15
  %24 = icmp eq i32 %23, 8
  br i1 %24, label %26, label %25

25:                                               ; preds = %19
  br label %82

26:                                               ; preds = %19, %13
  %27 = load ptr, ptr %5, align 8, !tbaa !23
  %28 = call i64 @stringObjectLen(ptr noundef %27)
  %29 = icmp ult i64 %28, 16
  br i1 %29, label %30, label %31

30:                                               ; preds = %26
  br label %82

31:                                               ; preds = %26
  %32 = load ptr, ptr %5, align 8, !tbaa !23
  %33 = getelementptr inbounds nuw %struct.redisObject, ptr %32, i32 0, i32 2
  %34 = load ptr, ptr %33, align 8, !tbaa !25
  store ptr %34, ptr %6, align 8, !tbaa !27
  %35 = load ptr, ptr %6, align 8, !tbaa !27
  %36 = getelementptr inbounds nuw %struct.hllhdr, ptr %35, i32 0, i32 0
  %37 = getelementptr inbounds [4 x i8], ptr %36, i64 0, i64 0
  %38 = load i8, ptr %37, align 1, !tbaa !17
  %39 = sext i8 %38 to i32
  %40 = icmp ne i32 %39, 72
  br i1 %40, label %62, label %41

41:                                               ; preds = %31
  %42 = load ptr, ptr %6, align 8, !tbaa !27
  %43 = getelementptr inbounds nuw %struct.hllhdr, ptr %42, i32 0, i32 0
  %44 = getelementptr inbounds [4 x i8], ptr %43, i64 0, i64 1
  %45 = load i8, ptr %44, align 1, !tbaa !17
  %46 = sext i8 %45 to i32
  %47 = icmp ne i32 %46, 89
  br i1 %47, label %62, label %48

48:                                               ; preds = %41
  %49 = load ptr, ptr %6, align 8, !tbaa !27
  %50 = getelementptr inbounds nuw %struct.hllhdr, ptr %49, i32 0, i32 0
  %51 = getelementptr inbounds [4 x i8], ptr %50, i64 0, i64 2
  %52 = load i8, ptr %51, align 1, !tbaa !17
  %53 = sext i8 %52 to i32
  %54 = icmp ne i32 %53, 76
  br i1 %54, label %62, label %55

55:                                               ; preds = %48
  %56 = load ptr, ptr %6, align 8, !tbaa !27
  %57 = getelementptr inbounds nuw %struct.hllhdr, ptr %56, i32 0, i32 0
  %58 = getelementptr inbounds [4 x i8], ptr %57, i64 0, i64 3
  %59 = load i8, ptr %58, align 1, !tbaa !17
  %60 = sext i8 %59 to i32
  %61 = icmp ne i32 %60, 76
  br i1 %61, label %62, label %63

62:                                               ; preds = %55, %48, %41, %31
  br label %82

63:                                               ; preds = %55
  %64 = load ptr, ptr %6, align 8, !tbaa !27
  %65 = getelementptr inbounds nuw %struct.hllhdr, ptr %64, i32 0, i32 1
  %66 = load i8, ptr %65, align 1, !tbaa !17
  %67 = zext i8 %66 to i32
  %68 = icmp sgt i32 %67, 1
  br i1 %68, label %69, label %70

69:                                               ; preds = %63
  br label %82

70:                                               ; preds = %63
  %71 = load ptr, ptr %6, align 8, !tbaa !27
  %72 = getelementptr inbounds nuw %struct.hllhdr, ptr %71, i32 0, i32 1
  %73 = load i8, ptr %72, align 1, !tbaa !17
  %74 = zext i8 %73 to i32
  %75 = icmp eq i32 %74, 0
  br i1 %75, label %76, label %81

76:                                               ; preds = %70
  %77 = load ptr, ptr %5, align 8, !tbaa !23
  %78 = call i64 @stringObjectLen(ptr noundef %77)
  %79 = icmp ne i64 %78, 12304
  br i1 %79, label %80, label %81

80:                                               ; preds = %76
  br label %82

81:                                               ; preds = %76, %70
  store i32 0, ptr %3, align 4
  store i32 1, ptr %7, align 4
  br label %84

82:                                               ; preds = %80, %69, %62, %30, %25
  %83 = load ptr, ptr %4, align 8, !tbaa !86
  call void @addReplyError(ptr noundef %83, ptr noundef @.str.6)
  store i32 -1, ptr %3, align 4
  store i32 1, ptr %7, align 4
  br label %84

84:                                               ; preds = %82, %81, %12
  call void @llvm.lifetime.end.p0(i64 8, ptr %6) #15
  %85 = load i32, ptr %3, align 4
  ret i32 %85
}