; Function Attrs: nounwind uwtable
define dso_local range(i32 -1, 1) i32 @isHLLObjectOrReply(ptr noundef %0, ptr noundef %1) local_unnamed_addr #5 {
  %3 = tail call i32 @checkType(ptr noundef %0, ptr noundef %1, i32 noundef 0) #20
  %.not = icmp eq i32 %3, 0
  br i1 %.not, label %4, label %33

4:                                                ; preds = %2
  %5 = load i32, ptr %1, align 8
  %6 = lshr i32 %5, 4
  %7 = and i32 %6, 15
  switch i32 %7, label %32 [
    i32 0, label %8
    i32 8, label %8
  ]

8:                                                ; preds = %4, %4
  %9 = tail call i64 @stringObjectLen(ptr noundef nonnull %1) #20
  %10 = icmp ult i64 %9, 16
  br i1 %10, label %32, label %11

11:                                               ; preds = %8
  %12 = getelementptr inbounds nuw i8, ptr %1, i64 8
  %13 = load ptr, ptr %12, align 8, !tbaa !15
  %14 = load i8, ptr %13, align 1, !tbaa !11
  %.not16 = icmp eq i8 %14, 72
  br i1 %.not16, label %15, label %32

15:                                               ; preds = %11
  %16 = getelementptr inbounds nuw i8, ptr %13, i64 1
  %17 = load i8, ptr %16, align 1, !tbaa !11
  %.not17 = icmp eq i8 %17, 89
  br i1 %.not17, label %18, label %32

18:                                               ; preds = %15
  %19 = getelementptr inbounds nuw i8, ptr %13, i64 2
  %20 = load i8, ptr %19, align 1, !tbaa !11
  %.not18 = icmp eq i8 %20, 76
  br i1 %.not18, label %21, label %32

21:                                               ; preds = %18
  %22 = getelementptr inbounds nuw i8, ptr %13, i64 3
  %23 = load i8, ptr %22, align 1, !tbaa !11
  %.not19 = icmp eq i8 %23, 76
  br i1 %.not19, label %24, label %32

24:                                               ; preds = %21
  %25 = getelementptr inbounds nuw i8, ptr %13, i64 4
  %26 = load i8, ptr %25, align 1, !tbaa !11
  %27 = icmp ugt i8 %26, 1
  br i1 %27, label %32, label %28

28:                                               ; preds = %24
  %29 = icmp eq i8 %26, 0
  br i1 %29, label %30, label %33

30:                                               ; preds = %28
  %31 = tail call i64 @stringObjectLen(ptr noundef nonnull %1) #20
  %.not20 = icmp eq i64 %31, 12304
  br i1 %.not20, label %33, label %32

32:                                               ; preds = %4, %30, %24, %11, %15, %18, %21, %8
  tail call void @addReplyError(ptr noundef %0, ptr noundef nonnull @.str.6) #20
  br label %33

33:                                               ; preds = %28, %30, %2, %32
  %.0 = phi i32 [ -1, %32 ], [ -1, %2 ], [ 0, %30 ], [ 0, %28 ]
  ret i32 %.0
}